target datalayout = "e-m:e-p270:32:32-p271:32:32-p272:64:64-i64:64-i128:128-f80:128-n8:16:32:64-S128"
target triple = "x86_64-pc-linux-gnu"

@H5_libterm_g = global i8 0, align 1

; Function Attrs: nounwind uwtable
define i32 @H5is_library_terminating(ptr noundef %0) #0 {
  %2 = alloca ptr, align 8
  %3 = alloca i32, align 4
  %4 = alloca i8, align 1
  store ptr %0, ptr %2, align 8
  store i32 0, ptr %3, align 4
  store i8 0, ptr %4, align 1
  %5 = load ptr, ptr %2, align 8
  %6 = icmp ne ptr %5, null
  br i1 %6, label %7, label %12

7:                                                ; preds = %1
  %8 = load i8, ptr @H5_libterm_g, align 1
  %9 = trunc i8 %8 to i1
  %10 = load ptr, ptr %2, align 8
  %11 = zext i1 %9 to i8
  store i8 %11, ptr %10, align 1
  br label %13

12:                                               ; preds = %1
  store i32 -1, ptr %3, align 4
  br label %13

13:                                               ; preds = %12, %7
  %14 = load i8, ptr %4, align 1
  %15 = trunc i8 %14 to i1
  %16 = xor i1 %15, true
  %17 = xor i1 %16, true
  %18 = zext i1 %17 to i32
  %19 = sext i32 %18 to i64
  %20 = icmp ne i64 %19, 0
  br i1 %20, label %21, label %23

21:                                               ; preds = %13
  %22 = call i32 @H5E_dump_api_stack()
  br label %23

23:                                               ; preds = %21, %13
  %24 = load i32, ptr %3, align 4
  ret i32 %24
}