; Function Attrs: mustprogress nofree norecurse nosync nounwind willreturn memory(read, argmem: write, inaccessiblemem: none) uwtable
define range(i32 -1, 1) i32 @H5is_library_terminating(ptr noundef writeonly %0) local_unnamed_addr #17 {
  %.not = icmp eq ptr %0, null
  br i1 %.not, label %5, label %2

2:                                                ; preds = %1
  %3 = load i8, ptr @H5_libterm_g, align 1
  %4 = and i8 %3, 1
  store i8 %4, ptr %0, align 1
  br label %5

5:                                                ; preds = %2, %1
  %.0 = phi i32 [ 0, %2 ], [ -1, %1 ]
  ret i32 %.0
}